(lp1
(lp2
L17255013715L
aL17254013715L
aL17253013715L
aL17251013715L
aL17250016115L
aL17249016115L
aL17247016115L
aL17246016115L
aL17244017215L
aL17241016115L
aL17240014015L
aL17239016115L
aL17238016115L
aL17237016115L
aL17235016115L
aL17234016115L
aL17233016115L
aL17229016115L
aL17227016115L
aL17225016115L
aa(lp3
L17216013715L
aL16805019815L
aL16804019815L
aL16803019815L
aL16802019815L
aL16801019815L
aL16800019815L
aL16509014015L
aL16491013115L
aL16490016115L
aL16486016115L
aL16485017615L
aL16484017215L
aL16482017215L
aL16481017215L
aL16480017215L
aL16479017615L
aL16478017215L
aL16477017215L
aL16475017215L
aa(lp4
L16474017215L
aL16473017215L
aL16472017215L
aL16471017615L
aL16470017215L
aL16469016115L
aL16468016115L
aL16467017215L
aL16465017615L
aL16464017215L
aL16463017215L
aL16462017615L
aL16461017215L
aL16459017615L
aL16458017215L
aL16457017615L
aL16456017215L
aL16455017615L
aL16454017615L
aL16453017215L
aa(lp5
L16452017215L
aL16448017215L
aL16446017215L
aL16445017215L
aL16444017215L
aL16443014715L
aL16441017215L
aL16440017215L
aL16439017215L
aL16436014015L
aL16435010015L
aL16434010015L
aL16433013515L
aL16432017215L
aL16430017215L
aL16429017215L
aL16426014015L
aL16425015315L
aL16424014015L
aL16423015315L
aa(lp6
L16422015315L
aL16421015315L
aL16420015315L
aL16419015315L
aL16418015315L
aL16408015315L
aL16407014015L
aL16406014015L
aL16405014015L
aL16402014015L
aL16401014015L
aL16134014015L
aL16133014015L
aL16131014015L
aL16096016115L
aL16048016115L
aL16047014015L
aL16046014015L
aL16032016115L
aL16031014715L
aa(lp7
L16030014815L
aL16029016115L
aL16028016115L
aL16027014815L
aL16026014815L
aL16025014815L
aL16024014815L
aL16020014815L
aL16016014815L
aL16014014015L
aL16011014815L
aL16009014815L
aL16008016115L
aL16007014015L
aL16006016115L
aL16004014115L
aL16003016115L
aL16002016115L
aL15797014015L
aL15795014015L
aa(lp8
L15793014015L
aL15792014015L
aL15790014015L
aL15729016115L
aL15727016115L
aL15725016115L
aL15723016115L
aL15720016115L
aL15718016115L
aL15708016115L
aL15706016115L
aL15704016115L
aL15703016115L
aL15702016115L
aL15651016115L
aL15646016115L
aL15645013615L
aL15638016115L
aL15636012215L
aL15635012215L
aa(lp9
L15633016115L
aL15293014015L
aL15292014015L
aL15225012515L
aL15216012515L
aL15103012815L
aL15050014715L
aL14974019515L
aL14899015415L
aL14875014615L
aL14853014615L
aL14814014615L
aL14790017515L
aL14775014615L
aL14755014615L
aL14754014615L
aL14753017715L
aL14722017715L
aL14709017515L
aL14708017315L
aa(lp10
L14707017715L
aL14706013715L
aL14705017515L
aL14704016115L
aL14703016115L
aL14701018015L
aL14700019415L
aL14698017315L
aL14697017715L
aL14696017315L
aL14695017715L
aL14694018015L
aL14693013715L
aL14692017315L
aL14691017715L
aL14681017515L
aL14680017515L
aL14679014015L
aL14678014015L
aL14677017315L
aa(lp11
L14676014015L
aL14675017715L
aL14674017815L
aL14673019515L
aL14671019415L
aL14668017915L
aL14667017715L
aL14666017515L
aL14664019415L
aL14663017515L
aL14657017315L
aL14656014815L
aL14655014815L
aL14652017515L
aL14651019415L
aL14647014615L
aL14645019415L
aL14644017515L
aL14643018015L
aL14641017515L
aa(lp12
L14640017315L
aL14639017515L
aL14638018015L
aL14637015415L
aL14619015415L
aL14617017515L
aL14616017315L
aL14615017715L
aL14608017715L
aL14606017315L
aL14605017315L
aL14604017715L
aL14599017515L
aL14598018015L
aL14498019315L
aL14434014815L
aL14420017515L
aL14419018015L
aL14418017515L
aL14417017515L
aa(lp13
L14416018015L
aL14415018015L
aL14413017515L
aL14412017515L
aL14411018015L
aL14410014815L
aL14409019415L
aL14408019415L
aL14403019415L
aL14401019415L
aL14400019415L
aL14399019415L
aL14397019415L
aL14396017515L
aL14395018015L
aL14393014815L
aL14391015415L
aL14380018015L
aL14379017515L
aL14377017715L
aa(lp14
L14376017315L
aL14374019415L
aL14373019415L
aL14372017715L
aL14371017515L
aL14368017815L
aL14367018015L
aL14366017815L
aL14364019415L
aL14363017715L
aL14361017315L
aL14360017515L
aL14358018015L
aL14356017515L
aL14351019415L
aL14350018015L
aL14341013115L
aL14340017515L
aL14329018015L
aL14322013615L
aa(lp15
L14321017815L
aL14320019015L
aL14317019415L
aL14316015415L
aL14314017515L
aL14312015415L
aL14311018015L
aL14310017515L
aL14309017515L
aL14308017515L
aL14307017515L
aL14306017515L
aL14305017515L
aL14304015415L
aL14302018015L
aL14294017315L
aL14292019415L
aL14291018015L
aL14289018015L
aL14284018015L
aa(lp16
L14279017515L
aL14278017515L
aL14277017515L
aL14270018015L
aL14269017515L
aL14266017515L
aL14264017315L
aL14263017515L
aL14262017515L
aL14261017715L
aL14260017515L
aL14259015415L
aL14244017815L
aL14243013715L
aL14242018015L
aL14241017515L
aL14240019415L
aL14239017715L
aL14238017515L
aL14236017515L
aa(lp17
L14229011015L
aL14226014015L
aL14225014015L
aL14221017315L
aL14220017315L
aL14219017315L
aL14218017515L
aL14217017315L
aL14216017715L
aL14215017715L
aL14214017515L
aL14213017715L
aL14212017315L
aL14211011015L
aL14210017315L
aL14209017315L
aL14208017715L
aL14207017715L
aL14202017715L
aL14197018015L
aa(lp18
L14196018015L
aL14195018015L
aL14194018015L
aL14193018015L
aL14192014815L
aL14189018015L
aL14187018015L
aL14186014715L
aL14184018015L
aL14183018015L
aL14182017315L
aL14181017315L
aL14180017715L
aL14179017315L
aL14178017715L
aL14177017515L
aL14176017315L
aL14173017715L
aL14172017715L
aL14171017715L
aa(lp19
L14170017315L
aL14169017315L
aL14167017315L
aL14164017315L
aL14161017715L
aL14155019415L
aL14154017515L
aL14152017515L
aL14151018015L
aL14141017715L
aL14137017515L
aL14133018015L
aL14119019415L
aL14117018015L
aL14110017515L
aL14108019415L
aL14106017515L
aL14105018015L
aL14097017315L
aL14096017715L
aa(lp20
L14094017715L
aL14093017315L
aL14085017315L
aL14084017515L
aL14083017515L
aL14082018015L
aL14081017315L
aL14079018015L
aL14077018015L
aL14076017715L
aL14072017315L
aL14071015415L
aL14070015415L
aL14069015415L
aL14068015415L
aL14045013715L
aL14039017515L
aL14036016115L
aL14035018015L
aL14034017515L
aa(lp21
L14033016115L
aL14032016115L
aL14030018015L
aL14027017515L
aL14026017515L
aL14024017515L
aL14020017515L
aL14013018015L
aL14011017515L
aL14010019415L
aL14003018015L
aL14002018015L
aL14001017715L
aL14000018015L
aL13709017715L
aL13636014015L
aL13635014015L
aL13622013115L
aL13621013115L
aL13620013115L
aa(lp22
L13612013115L
aL13606015215L
aL13605013115L
aL13602015215L
aL13601015215L
aL13600018415L
aL13228014015L
aL13227014015L
aL13226014015L
aL13225014015L
aL13224014615L
aL13223014615L
aL13222014615L
aL13221014015L
aL13216017315L
aL13215017315L
aL13214014615L
aL13213017315L
aL13212014715L
aL13211014615L
aa(lp23
L13210017315L
aL13209017715L
aL13208017315L
aL13207017315L
aL13206014615L
aL13205014615L
aL13204017715L
aL13203017315L
aL13202017715L
aL13201017315L
aL13200017715L
aL13199017315L
aL13198017715L
aL13197018015L
aL13196017715L
aL13195017715L
aL13194019415L
aL13193019415L
aL13192019415L
aL13191014615L
aa(lp24
L13190014615L
aL13189019415L
aL13188017715L
aL13187017515L
aL13186017515L
aL13185017515L
aL13184017715L
aL13183018015L
aL13182018015L
aL13181016115L
aL13180016115L
aL13179014615L
aL13178016115L
aL13177016115L
aL13176014615L
aL13175019415L
aL13174014615L
aL13173014615L
aL13172014615L
aL13171019415L
aa(lp25
L13170017515L
aL13169017315L
aL13168014815L
aL13167019415L
aL13166017315L
aL13165017315L
aL13164018015L
aL13163017715L
aL13162017715L
aL13161017715L
aL13160019415L
aL13159019415L
aL13158017715L
aL13157014815L
aL13156014815L
aL13155016115L
aL13154014615L
aL13153019815L
aL13152017515L
aL13151017715L
aa(lp26
L13150017715L
aL13149017715L
aL13148019815L
aL13147017815L
aL13146017815L
aL13145017515L
aL13144017515L
aL13143017515L
aL13142017515L
aL13141017815L
aL13140019415L
aL13139019415L
aL13138017815L
aL13137011815L
aL13136017715L
aL13135017715L
aL13134017815L
aL13133019415L
aL13132017715L
aL13131017715L
aa(lp27
L13130017815L
aL13129018015L
aL13128018015L
aL13127018015L
aL13126017715L
aL13125019415L
aL13124017515L
aL13123017715L
aL13122017715L
aL13121017715L
aL13120017715L
aL13119017715L
aL13118017315L
aL13117017815L
aL13116017715L
aL13115017715L
aL13114017715L
aL13113017715L
aL13112017715L
aL13111017715L
aa(lp28
L13110017715L
aL13109017315L
aL13108018015L
aL13107018015L
aL13106018015L
aL13105018015L
aL13104017315L
aL13103017315L
aL13102017315L
aL13101017315L
aL13100017315L
aL13099019415L
aL13098017715L
aL13097019415L
aL13096017715L
aL13095017715L
aL13094017515L
aL13093019415L
aL13092016115L
aL13091018015L
aa(lp29
L13090017515L
aL13089018015L
aL13088018015L
aL13087017715L
aL13086017715L
aL13085013115L
aL13084017515L
aL13083017715L
aL13082017515L
aL13081013115L
aL13080017515L
aL13079017715L
aL13078017715L
aL13077017515L
aL13076017815L
aL13075017515L
aL13074013115L
aL13073013115L
aL13072017715L
aL13071017515L
aa(lp30
L13070019415L
aL13069017515L
aL13068019415L
aL13067017815L
aL13066017515L
aL13065017515L
aL13064017515L
aL13063019415L
aL13062018015L
aL13061017815L
aL13060017815L
aL13059016115L
aL13058017815L
aL13057017715L
aL13056016115L
aa.